target datalayout = "e-m:e-p270:32:32-p271:32:32-p272:64:64-i64:64-i128:128-f80:128-n8:16:32:64-S128"
target triple = "x86_64-pc-linux-gnu"

%class.LibRaw = type { ptr, %struct.libraw_data_t, ptr, %struct.libraw_internal_data_t, [2048 x %struct.decode], ptr, ptr, [10 x %struct.tiff_ifd_t], %class.libraw_memmgr, %struct.libraw_callbacks_t, { i64, i64 }, { i64, i64 }, { i64, i64 }, ptr, ptr, ptr, i64, ptr, ptr, ptr, ptr }
%struct.libraw_data_t = type { ptr, %struct.libraw_image_sizes_t, %struct.libraw_iparams_t, %struct.libraw_lensinfo_t, %struct.libraw_makernotes_t, %struct.libraw_shootinginfo_t, %struct.libraw_output_params_t, %struct.libraw_raw_unpack_params_t, i32, i32, %struct.libraw_colordata_t, %struct.libraw_imgother_t, %struct.libraw_thumbnail_t, %struct.libraw_thumbnail_list_t, %struct.libraw_rawdata_t, ptr }
%struct.libraw_image_sizes_t = type { i16, i16, i16, i16, i16, i16, i16, i16, i32, double, i32, [8 x [4 x i32]], i16, [2 x %struct.libraw_raw_inset_crop_t] }
%struct.libraw_raw_inset_crop_t = type { i16, i16, i16, i16 }
%struct.libraw_iparams_t = type { [4 x i8], [64 x i8], [64 x i8], [64 x i8], [64 x i8], [64 x i8], i32, i32, i32, i32, i32, i32, [6 x [6 x i8]], [6 x [6 x i8]], [5 x i8], i32, ptr }
%struct.libraw_lensinfo_t = type { float, float, float, float, float, [128 x i8], [128 x i8], [128 x i8], [128 x i8], i16, %struct.libraw_nikonlens_t, %struct.libraw_dnglens_t, %struct.libraw_makernotes_lens_t }
%struct.libraw_nikonlens_t = type { float, i8, i8, i8, i8 }
%struct.libraw_dnglens_t = type { float, float, float, float }
%struct.libraw_makernotes_lens_t = type { i64, [128 x i8], i16, i16, i64, i16, i16, [64 x i8], i16, [16 x i8], [16 x i8], float, float, float, float, float, float, float, float, float, float, float, float, float, float, float, i64, [128 x i8], i64, [128 x i8], i64, [128 x i8], i16, float }
%struct.libraw_makernotes_t = type { %struct.libraw_canon_makernotes_t, %struct.libraw_nikon_makernotes_t, %struct.libraw_hasselblad_makernotes_t, %struct.libraw_fuji_info_t, %struct.libraw_olympus_makernotes_t, %struct.libraw_sony_info_t, %struct.libraw_kodak_makernotes_t, %struct.libraw_panasonic_makernotes_t, %struct.libraw_pentax_makernotes_t, %struct.libraw_p1_makernotes_t, %struct.libraw_ricoh_makernotes_t, %struct.libraw_samsung_makernotes_t, %struct.libraw_metadata_common_t }
%struct.libraw_canon_makernotes_t = type { i32, i32, i32, i32, [4 x i32], i32, [4 x i32], i16, i16, i8, i16, i16, i16, i16, i16, i16, i16, i16, i16, i16, i16, i16, i16, i32, float, i16, i16, i16, i32, i16, i32, i32, i16, i32, %struct.libraw_area_t, %struct.libraw_area_t, %struct.libraw_area_t, %struct.libraw_area_t, %struct.libraw_area_t, [2 x i16] }
%struct.libraw_area_t = type { i16, i16, i16, i16 }
%struct.libraw_nikon_makernotes_t = type { double, i16, i16, [7 x i8], i8, i8, [13 x i8], [20 x i8], [4 x i8], [4 x i8], [4 x i8], i8, i8, i8, i8, i8, [2 x i8], i8, i8, i8, i8, i8, [4 x i8], [4 x i8], i8, i16, i32, i32, i32, i32, [4 x double], i8, i8, i8, i32, i32, i32, i8, [4 x i16], i16, %struct.libraw_sensor_highspeed_crop_t, i16, i16, i16, i32, [20 x i8], [20 x i8], i32, i16, double, double, double }
%struct.libraw_sensor_highspeed_crop_t = type { i16, i16, i16, i16 }
%struct.libraw_hasselblad_makernotes_t = type { i32, double, [8 x i8], [64 x i8], [64 x i8], i32, i32, i32, i32, [32 x i8], [64 x i8], i32, [2 x i32], [2 x i32], [4 x [3 x double]] }
%struct.libraw_fuji_info_t = type { float, i16, i16, i16, i16, i16, i16, i16, i16, [33 x i8], [33 x i8], float, i16, i16, [2 x i16], i16, i32, i32, i16, [3 x i16], i16, i16, i16, i16, i16, i32, i16, [13 x i8], [5 x i8], [5 x i8], i32, i16, i32, i16, [9 x i16], [32 x i32], i32, i32, i32, [2 x float], i32 }
%struct.libraw_olympus_makernotes_t = type { [6 x i8], i16, [2 x i32], [5 x i16], i16, [2 x i16], i16, i16, [64 x i32], [5 x double], i16, i8, [3 x i16], [3 x i32], i16, i16, i16, i16, double, [4 x i16], [2 x i32], i8, i32, i16, i16 }
%struct.libraw_sony_info_t = type { i16, i8, i8, i32, i8, i32, i8, i8, i16, [2 x i16], i8, i8, i16, [10 x i8], i8, i8, [4 x i16], i16, i8, i8, i8, i16, i32, i16, [2 x i16], i16, i16, i16, i16, i16, i16, i16, i32, float, i16, i32, i32, i16, [20 x i8], i32, i16, i32, i8, i8, i16, i16, i16, i16, i16, i16, i16, i16, i16, i32, i16, [16 x i8], float }
%struct.libraw_kodak_makernotes_t = type { i16, i16, i16, i16, i16, i16, [3 x [3 x float]], [3 x [3 x float]], [3 x [3 x float]], [3 x [3 x float]], [3 x [3 x float]], [3 x [3 x float]], i16, i16, i16, i16, float, float }
%struct.libraw_panasonic_makernotes_t = type { i16, i16, [8 x float], i32, float, [3 x i32], i16, i16, i32, i32 }
%struct.libraw_pentax_makernotes_t = type { [4 x i8], [2 x i16], [2 x i16], i16, i32, i32, i16, i16, i8, i8, i16 }
%struct.libraw_p1_makernotes_t = type { [64 x i8], [64 x i8], [256 x i8], [64 x i8] }
%struct.libraw_ricoh_makernotes_t = type { i16, [2 x i32], [2 x i32], i16, i32, i32, i32, i32, i16, i16, i16, i16, i16, i16, double, double }
%struct.libraw_samsung_makernotes_t = type { [4 x i32], [4 x i32], [2 x i32], [11 x i32], double, i32, [32 x i8] }
%struct.libraw_metadata_common_t = type { float, float, float, float, float, float, float, float, float, float, float, float, float, float, float, float, i16, [128 x i8], float, [4 x %struct.libraw_afinfo_item_t], i32 }
%struct.libraw_afinfo_item_t = type { i32, i16, i32, i32, ptr }
%struct.libraw_shootinginfo_t = type { i16, i16, i16, i16, i16, i16, i16, [64 x i8], [64 x i8] }
%struct.libraw_output_params_t = type { [4 x i32], [4 x i32], [4 x double], [6 x double], [4 x float], float, float, i32, i32, i32, i32, i32, i32, i32, ptr, ptr, ptr, ptr, i32, i32, i32, i32, i32, i32, [4 x i32], i32, i32, float, float, i32, i32, i32, i32, i32, i32, i32, i32, float, float, i32, i32 }
%struct.libraw_raw_unpack_params_t = type { i32, i32, i32, i32, i32, i32, i32, float, [5 x i8], ptr }
%struct.libraw_colordata_t = type { [65536 x i16], [4104 x i32], i32, i32, i32, [4 x i64], float, float, [8 x [8 x i16]], [4 x float], [4 x float], [3 x [4 x float]], [3 x [4 x float]], [3 x [4 x float]], [4 x [3 x float]], %struct.ph1_t, float, float, [64 x i8], [64 x i8], [64 x i8], [64 x i8], [17 x i8], [64 x i8], ptr, i32, [8 x i32], [2 x %struct.libraw_dng_color_t], %struct.libraw_dng_levels_t, [256 x [4 x i32]], [64 x [5 x float]], i32, [2 x %struct.libraw_P1_color_t], i32, i32 }
%struct.ph1_t = type { i32, i32, i32, i32, i32, i32, i32, i32, float }
%struct.libraw_dng_color_t = type { i32, i16, [4 x [4 x float]], [4 x [3 x float]], [3 x [4 x float]] }
%struct.libraw_dng_levels_t = type { i32, [4104 x i32], i32, [4104 x float], float, [4 x i32], [4 x i16], [4 x float], i32, [4 x float], [4 x float], float, float }
%struct.libraw_P1_color_t = type { [9 x float] }
%struct.libraw_imgother_t = type { float, float, float, float, i64, i32, [32 x i32], %struct.libraw_gps_info_t, [512 x i8], [64 x i8], [4 x float] }
%struct.libraw_gps_info_t = type { [3 x float], [3 x float], [3 x float], float, i8, i8, i8, i8, i8 }
%struct.libraw_thumbnail_t = type { i32, i16, i16, i32, i32, ptr }
%struct.libraw_thumbnail_list_t = type { i32, [8 x %struct.libraw_thumbnail_item_t] }
%struct.libraw_thumbnail_item_t = type { i32, i16, i16, i16, i32, i32, i64 }
%struct.libraw_rawdata_t = type { ptr, ptr, ptr, ptr, ptr, ptr, ptr, ptr, ptr, %struct.libraw_iparams_t, %struct.libraw_image_sizes_t, %struct.libraw_internal_output_params_t, %struct.libraw_colordata_t }
%struct.libraw_internal_output_params_t = type { i32, i32, i32, i16, i16 }
%struct.libraw_internal_data_t = type { %struct.internal_data_t, %struct.libraw_internal_output_params_t, %struct.output_data_t, %struct.identify_data_t, %struct.unpacker_data_t }
%struct.internal_data_t = type { ptr, ptr, i32, ptr, i64, i64, [4 x i32] }
%struct.output_data_t = type { ptr, ptr }
%struct.identify_data_t = type { i32, i64, i64, i32, i32, i32 }
%struct.unpacker_data_t = type { i16, [4 x i16], [3 x i16], i32, i64, i64, i64, i64, i64, i64, i32, i32, i32, i32, i32, i32, i32, i32, i32, i32, i32, i32, i32, i32, i32, i32, i32, i64, i32, i32, i32, i32, i32, i32, i32, i32, i32, %struct.pana8_tags_t, [16 x %struct.crx_data_header_t], i32, i32, i16, i16, i32, i32, i32, i32, i32, i32, i32, [20 x i32], i16 }
%struct.pana8_tags_t = type { [6 x i32], [6 x i16], i16, [4 x i16], [17 x i16], [17 x i16], [17 x i16], i16, i16, [5 x i64], [5 x i16], [5 x i32], [5 x i16], [5 x i16] }
%struct.crx_data_header_t = type { i32, i32, i32, i32, i32, i32, i32, i32, i32, i32, i32, i32, i32, i32, i32, i64, i32, ptr, i32, i32, i32, ptr, i32, ptr }
%struct.decode = type { [2 x ptr], i32 }
%struct.tiff_ifd_t = type { i32, i32, i32, i32, i32, i32, i32, i32, i32, i32, i32, i32, i32, i32, i32, ptr, i32, ptr, i32, i32, i32, i32, i32, i32, i32, float, i64, i64, i32, [2 x %struct.libraw_dng_color_t], %struct.libraw_dng_levels_t, i32 }
%class.libraw_memmgr = type <{ ptr, i32, [4 x i8] }>
%struct.libraw_callbacks_t = type { ptr, ptr, ptr, ptr, ptr, ptr, ptr, ptr, ptr, ptr, ptr, ptr, ptr, ptr, ptr, ptr, ptr }

@.str.56 = private unnamed_addr constant [5 x i8] c"E995\00", align 1
@.str.57 = private unnamed_addr constant [6 x i8] c"E2500\00", align 1
@.str.58 = private unnamed_addr constant [8 x i8] c"Minolta\00", align 1
@.str.59 = private unnamed_addr constant [10 x i8] c"DiMAGE Z2\00", align 1

; Function Attrs: mustprogress uwtable
define void @_ZN6LibRaw29identify_finetune_by_filesizeEi(ptr noundef nonnull align 8 dereferenceable(767680) %0, i32 noundef %1) #3 align 2 {
  %3 = alloca ptr, align 8
  %4 = alloca i32, align 4
  store ptr %0, ptr %3, align 8, !tbaa !6
  store i32 %1, ptr %4, align 4, !tbaa !11
  %5 = load ptr, ptr %3, align 8
  %6 = load i32, ptr %4, align 4, !tbaa !11
  %7 = icmp eq i32 %6, 4771840
  br i1 %7, label %8, label %24

8:                                                ; preds = %2
  %9 = getelementptr inbounds nuw %class.LibRaw, ptr %5, i32 0, i32 1
  %10 = getelementptr inbounds nuw %struct.libraw_data_t, ptr %9, i32 0, i32 11
  %11 = getelementptr inbounds nuw %struct.libraw_imgother_t, ptr %10, i32 0, i32 4
  %12 = load i64, ptr %11, align 8, !tbaa !147
  %13 = icmp ne i64 %12, 0
  br i1 %13, label %23, label %14

14:                                               ; preds = %8
  %15 = call noundef i32 @_ZN6LibRaw10nikon_e995Ev(ptr noundef nonnull align 8 dereferenceable(767680) %5)
  %16 = icmp ne i32 %15, 0
  br i1 %16, label %17, label %23

17:                                               ; preds = %14
  %18 = getelementptr inbounds nuw %class.LibRaw, ptr %5, i32 0, i32 1
  %19 = getelementptr inbounds nuw %struct.libraw_data_t, ptr %18, i32 0, i32 2
  %20 = getelementptr inbounds nuw %struct.libraw_iparams_t, ptr %19, i32 0, i32 2
  %21 = getelementptr inbounds [64 x i8], ptr %20, i64 0, i64 0
  %22 = call ptr @strcpy(ptr noundef %21, ptr noundef @.str.56) #11
  br label %23

23:                                               ; preds = %17, %14, %8
  br label %84

24:                                               ; preds = %2
  %25 = load i32, ptr %4, align 4, !tbaa !11
  %26 = icmp eq i32 %25, 2940928
  br i1 %26, label %27, label %43

27:                                               ; preds = %24
  %28 = getelementptr inbounds nuw %class.LibRaw, ptr %5, i32 0, i32 1
  %29 = getelementptr inbounds nuw %struct.libraw_data_t, ptr %28, i32 0, i32 11
  %30 = getelementptr inbounds nuw %struct.libraw_imgother_t, ptr %29, i32 0, i32 4
  %31 = load i64, ptr %30, align 8, !tbaa !147
  %32 = icmp ne i64 %31, 0
  br i1 %32, label %42, label %33

33:                                               ; preds = %27
  %34 = call noundef i32 @_ZN6LibRaw11nikon_e2100Ev(ptr noundef nonnull align 8 dereferenceable(767680) %5)
  %35 = icmp ne i32 %34, 0
  br i1 %35, label %42, label %36

36:                                               ; preds = %33
  %37 = getelementptr inbounds nuw %class.LibRaw, ptr %5, i32 0, i32 1
  %38 = getelementptr inbounds nuw %struct.libraw_data_t, ptr %37, i32 0, i32 2
  %39 = getelementptr inbounds nuw %struct.libraw_iparams_t, ptr %38, i32 0, i32 2
  %40 = getelementptr inbounds [64 x i8], ptr %39, i64 0, i64 0
  %41 = call ptr @strcpy(ptr noundef %40, ptr noundef @.str.57) #11
  br label %42

42:                                               ; preds = %36, %33, %27
  br label %83

43:                                               ; preds = %24
  %44 = load i32, ptr %4, align 4, !tbaa !11
  %45 = icmp eq i32 %44, 4775936
  br i1 %45, label %46, label %54

46:                                               ; preds = %43
  %47 = getelementptr inbounds nuw %class.LibRaw, ptr %5, i32 0, i32 1
  %48 = getelementptr inbounds nuw %struct.libraw_data_t, ptr %47, i32 0, i32 11
  %49 = getelementptr inbounds nuw %struct.libraw_imgother_t, ptr %48, i32 0, i32 4
  %50 = load i64, ptr %49, align 8, !tbaa !147
  %51 = icmp ne i64 %50, 0
  br i1 %51, label %53, label %52

52:                                               ; preds = %46
  call void @_ZN6LibRaw10nikon_3700Ev(ptr noundef nonnull align 8 dereferenceable(767680) %5)
  br label %53

53:                                               ; preds = %52, %46
  br label %82

54:                                               ; preds = %43
  %55 = load i32, ptr %4, align 4, !tbaa !11
  %56 = icmp eq i32 %55, 5869568
  br i1 %56, label %57, label %81

57:                                               ; preds = %54
  %58 = getelementptr inbounds nuw %class.LibRaw, ptr %5, i32 0, i32 1
  %59 = getelementptr inbounds nuw %struct.libraw_data_t, ptr %58, i32 0, i32 11
  %60 = getelementptr inbounds nuw %struct.libraw_imgother_t, ptr %59, i32 0, i32 4
  %61 = load i64, ptr %60, align 8, !tbaa !147
  %62 = icmp ne i64 %61, 0
  br i1 %62, label %80, label %63

63:                                               ; preds = %57
  %64 = call noundef i32 @_ZN6LibRaw10minolta_z2Ev(ptr noundef nonnull align 8 dereferenceable(767680) %5)
  %65 = icmp ne i32 %64, 0
  br i1 %65, label %66, label %80

66:                                               ; preds = %63
  %67 = getelementptr inbounds nuw %class.LibRaw, ptr %5, i32 0, i32 1
  %68 = getelementptr inbounds nuw %struct.libraw_data_t, ptr %67, i32 0, i32 2
  %69 = getelementptr inbounds nuw %struct.libraw_iparams_t, ptr %68, i32 0, i32 6
  store i32 40, ptr %69, align 4, !tbaa !17
  %70 = getelementptr inbounds nuw %class.LibRaw, ptr %5, i32 0, i32 1
  %71 = getelementptr inbounds nuw %struct.libraw_data_t, ptr %70, i32 0, i32 2
  %72 = getelementptr inbounds nuw %struct.libraw_iparams_t, ptr %71, i32 0, i32 1
  %73 = getelementptr inbounds [64 x i8], ptr %72, i64 0, i64 0
  %74 = call ptr @strcpy(ptr noundef %73, ptr noundef @.str.58) #11
  %75 = getelementptr inbounds nuw %class.LibRaw, ptr %5, i32 0, i32 1
  %76 = getelementptr inbounds nuw %struct.libraw_data_t, ptr %75, i32 0, i32 2
  %77 = getelementptr inbounds nuw %struct.libraw_iparams_t, ptr %76, i32 0, i32 2
  %78 = getelementptr inbounds [64 x i8], ptr %77, i64 0, i64 0
  %79 = call ptr @strcpy(ptr noundef %78, ptr noundef @.str.59) #11
  br label %80

80:                                               ; preds = %66, %63, %57
  br label %81

81:                                               ; preds = %80, %54
  br label %82

82:                                               ; preds = %81, %53
  br label %83

83:                                               ; preds = %82, %42
  br label %84

84:                                               ; preds = %83, %23
  ret void
}