; Function Attrs: mustprogress uwtable
define void @_ZN6LibRaw29identify_finetune_by_filesizeEi(ptr noundef nonnull align 8 dereferenceable(767680) %0, i32 noundef %1) local_unnamed_addr #4 align 2 {
  switch i32 %1, label %30 [
    i32 4771840, label %3
    i32 2940928, label %10
    i32 4775936, label %17
    i32 5869568, label %21
  ]

3:                                                ; preds = %2
  %4 = getelementptr inbounds nuw i8, ptr %0, i64 192568
  %5 = load i64, ptr %4, align 8, !tbaa !122
  %.not8 = icmp eq i64 %5, 0
  br i1 %.not8, label %6, label %30

6:                                                ; preds = %3
  %7 = tail call noundef i32 @_ZN6LibRaw10nikon_e995Ev(ptr noundef nonnull align 8 dereferenceable(767680) %0)
  %.not9 = icmp eq i32 %7, 0
  br i1 %.not9, label %30, label %8

8:                                                ; preds = %6
  %9 = getelementptr inbounds nuw i8, ptr %0, i64 268
  tail call void @llvm.memcpy.p0.p0.i64(ptr noundef nonnull align 4 dereferenceable(5) %9, ptr noundef nonnull align 1 dereferenceable(5) @.str.56, i64 5, i1 false) #17
  br label %30

10:                                               ; preds = %2
  %11 = getelementptr inbounds nuw i8, ptr %0, i64 192568
  %12 = load i64, ptr %11, align 8, !tbaa !122
  %.not6 = icmp eq i64 %12, 0
  br i1 %.not6, label %13, label %30

13:                                               ; preds = %10
  %14 = tail call noundef i32 @_ZN6LibRaw11nikon_e2100Ev(ptr noundef nonnull align 8 dereferenceable(767680) %0)
  %.not7 = icmp eq i32 %14, 0
  br i1 %.not7, label %15, label %30

15:                                               ; preds = %13
  %16 = getelementptr inbounds nuw i8, ptr %0, i64 268
  tail call void @llvm.memcpy.p0.p0.i64(ptr noundef nonnull align 4 dereferenceable(6) %16, ptr noundef nonnull align 1 dereferenceable(6) @.str.57, i64 6, i1 false) #17
  br label %30

17:                                               ; preds = %2
  %18 = getelementptr inbounds nuw i8, ptr %0, i64 192568
  %19 = load i64, ptr %18, align 8, !tbaa !122
  %.not5 = icmp eq i64 %19, 0
  br i1 %.not5, label %20, label %30

20:                                               ; preds = %17
  tail call void @_ZN6LibRaw10nikon_3700Ev(ptr noundef nonnull align 8 dereferenceable(767680) %0)
  br label %30

21:                                               ; preds = %2
  %22 = getelementptr inbounds nuw i8, ptr %0, i64 192568
  %23 = load i64, ptr %22, align 8, !tbaa !122
  %.not = icmp eq i64 %23, 0
  br i1 %.not, label %24, label %30

24:                                               ; preds = %21
  %25 = tail call noundef i32 @_ZN6LibRaw10minolta_z2Ev(ptr noundef nonnull align 8 dereferenceable(767680) %0)
  %.not4 = icmp eq i32 %25, 0
  br i1 %.not4, label %30, label %26

26:                                               ; preds = %24
  %27 = getelementptr inbounds nuw i8, ptr %0, i64 524
  store i32 40, ptr %27, align 4, !tbaa !16
  %28 = getelementptr inbounds nuw i8, ptr %0, i64 204
  store i64 27431081815730509, ptr %28, align 4
  %29 = getelementptr inbounds nuw i8, ptr %0, i64 268
  tail call void @llvm.memcpy.p0.p0.i64(ptr noundef nonnull align 4 dereferenceable(10) %29, ptr noundef nonnull align 1 dereferenceable(10) @.str.59, i64 10, i1 false) #17
  br label %30

30:                                               ; preds = %2, %15, %13, %10, %26, %24, %21, %17, %20, %3, %6, %8
  ret void
}